target datalayout = "e-m:e-p270:32:32-p271:32:32-p272:64:64-i64:64-i128:128-f80:128-n8:16:32:64-S128"
target triple = "x86_64-pc-linux-gnu"

%struct.jpeg_common_struct = type { ptr, ptr, ptr, ptr, i32, i32 }
%struct.jpeg_error_mgr = type { ptr, ptr, ptr, ptr, ptr, i32, %union.anon, i32, i64, ptr, i32, ptr, i32, i32 }
%union.anon = type { [8 x i32], [48 x i8] }
%struct.my_memory_mgr = type { %struct.jpeg_memory_mgr, [2 x ptr], [2 x ptr], ptr, ptr, i64, i32 }
%struct.jpeg_memory_mgr = type { ptr, ptr, ptr, ptr, ptr, ptr, ptr, ptr, ptr, ptr, ptr, i64, i64 }

; Function Attrs: nounwind uwtable
define internal ptr @alloc_barray(ptr noundef %0, i32 noundef %1, i32 noundef %2, i32 noundef %3) #0 {
  %5 = alloca ptr, align 8
  %6 = alloca i32, align 4
  %7 = alloca i32, align 4
  %8 = alloca i32, align 4
  %9 = alloca ptr, align 8
  %10 = alloca ptr, align 8
  %11 = alloca ptr, align 8
  %12 = alloca i32, align 4
  %13 = alloca i32, align 4
  %14 = alloca i32, align 4
  %15 = alloca i64, align 8
  store ptr %0, ptr %5, align 8, !tbaa !3
  store i32 %1, ptr %6, align 4, !tbaa !40
  store i32 %2, ptr %7, align 4, !tbaa !40
  store i32 %3, ptr %8, align 4, !tbaa !40
  call void @llvm.lifetime.start.p0(i64 8, ptr %9) #8
  %16 = load ptr, ptr %5, align 8, !tbaa !3
  %17 = getelementptr inbounds nuw %struct.jpeg_common_struct, ptr %16, i32 0, i32 1
  %18 = load ptr, ptr %17, align 8, !tbaa !8
  store ptr %18, ptr %9, align 8, !tbaa !21
  call void @llvm.lifetime.start.p0(i64 8, ptr %10) #8
  call void @llvm.lifetime.start.p0(i64 8, ptr %11) #8
  call void @llvm.lifetime.start.p0(i64 4, ptr %12) #8
  call void @llvm.lifetime.start.p0(i64 4, ptr %13) #8
  call void @llvm.lifetime.start.p0(i64 4, ptr %14) #8
  call void @llvm.lifetime.start.p0(i64 8, ptr %15) #8
  %19 = load i32, ptr %7, align 4, !tbaa !40
  %20 = zext i32 %19 to i64
  %21 = mul i64 %20, 128
  %22 = udiv i64 999999976, %21
  store i64 %22, ptr %15, align 8, !tbaa !14
  %23 = load i64, ptr %15, align 8, !tbaa !14
  %24 = icmp sle i64 %23, 0
  br i1 %24, label %25, label %36

25:                                               ; preds = %4
  %26 = load ptr, ptr %5, align 8, !tbaa !3
  %27 = getelementptr inbounds nuw %struct.jpeg_common_struct, ptr %26, i32 0, i32 0
  %28 = load ptr, ptr %27, align 8, !tbaa !16
  %29 = getelementptr inbounds nuw %struct.jpeg_error_mgr, ptr %28, i32 0, i32 5
  store i32 70, ptr %29, align 8, !tbaa !17
  %30 = load ptr, ptr %5, align 8, !tbaa !3
  %31 = getelementptr inbounds nuw %struct.jpeg_common_struct, ptr %30, i32 0, i32 0
  %32 = load ptr, ptr %31, align 8, !tbaa !16
  %33 = getelementptr inbounds nuw %struct.jpeg_error_mgr, ptr %32, i32 0, i32 0
  %34 = load ptr, ptr %33, align 8, !tbaa !20
  %35 = load ptr, ptr %5, align 8, !tbaa !3
  call void %34(ptr noundef %35)
  br label %36

36:                                               ; preds = %25, %4
  %37 = load i64, ptr %15, align 8, !tbaa !14
  %38 = load i32, ptr %8, align 4, !tbaa !40
  %39 = zext i32 %38 to i64
  %40 = icmp slt i64 %37, %39
  br i1 %40, label %41, label %44

41:                                               ; preds = %36
  %42 = load i64, ptr %15, align 8, !tbaa !14
  %43 = trunc i64 %42 to i32
  store i32 %43, ptr %12, align 4, !tbaa !40
  br label %46

44:                                               ; preds = %36
  %45 = load i32, ptr %8, align 4, !tbaa !40
  store i32 %45, ptr %12, align 4, !tbaa !40
  br label %46

46:                                               ; preds = %44, %41
  %47 = load i32, ptr %12, align 4, !tbaa !40
  %48 = load ptr, ptr %9, align 8, !tbaa !21
  %49 = getelementptr inbounds nuw %struct.my_memory_mgr, ptr %48, i32 0, i32 6
  store i32 %47, ptr %49, align 8, !tbaa !92
  %50 = load ptr, ptr %5, align 8, !tbaa !3
  %51 = load i32, ptr %6, align 4, !tbaa !40
  %52 = load i32, ptr %8, align 4, !tbaa !40
  %53 = zext i32 %52 to i64
  %54 = mul i64 %53, 8
  %55 = call ptr @alloc_small(ptr noundef %50, i32 noundef %51, i64 noundef %54)
  store ptr %55, ptr %10, align 8, !tbaa !96
  store i32 0, ptr %13, align 4, !tbaa !40
  br label %56

56:                                               ; preds = %101, %46
  %57 = load i32, ptr %13, align 4, !tbaa !40
  %58 = load i32, ptr %8, align 4, !tbaa !40
  %59 = icmp ult i32 %57, %58
  br i1 %59, label %60, label %102

60:                                               ; preds = %56
  %61 = load i32, ptr %12, align 4, !tbaa !40
  %62 = load i32, ptr %8, align 4, !tbaa !40
  %63 = load i32, ptr %13, align 4, !tbaa !40
  %64 = sub i32 %62, %63
  %65 = icmp ult i32 %61, %64
  br i1 %65, label %66, label %68

66:                                               ; preds = %60
  %67 = load i32, ptr %12, align 4, !tbaa !40
  br label %72

68:                                               ; preds = %60
  %69 = load i32, ptr %8, align 4, !tbaa !40
  %70 = load i32, ptr %13, align 4, !tbaa !40
  %71 = sub i32 %69, %70
  br label %72

72:                                               ; preds = %68, %66
  %73 = phi i32 [ %67, %66 ], [ %71, %68 ]
  store i32 %73, ptr %12, align 4, !tbaa !40
  %74 = load ptr, ptr %5, align 8, !tbaa !3
  %75 = load i32, ptr %6, align 4, !tbaa !40
  %76 = load i32, ptr %12, align 4, !tbaa !40
  %77 = zext i32 %76 to i64
  %78 = load i32, ptr %7, align 4, !tbaa !40
  %79 = zext i32 %78 to i64
  %80 = mul i64 %77, %79
  %81 = mul i64 %80, 128
  %82 = call ptr @alloc_large(ptr noundef %74, i32 noundef %75, i64 noundef %81)
  store ptr %82, ptr %11, align 8, !tbaa !98
  %83 = load i32, ptr %12, align 4, !tbaa !40
  store i32 %83, ptr %14, align 4, !tbaa !40
  br label %84

84:                                               ; preds = %98, %72
  %85 = load i32, ptr %14, align 4, !tbaa !40
  %86 = icmp ugt i32 %85, 0
  br i1 %86, label %87, label %101

87:                                               ; preds = %84
  %88 = load ptr, ptr %11, align 8, !tbaa !98
  %89 = load ptr, ptr %10, align 8, !tbaa !96
  %90 = load i32, ptr %13, align 4, !tbaa !40
  %91 = add i32 %90, 1
  store i32 %91, ptr %13, align 4, !tbaa !40
  %92 = zext i32 %90 to i64
  %93 = getelementptr inbounds nuw ptr, ptr %89, i64 %92
  store ptr %88, ptr %93, align 8, !tbaa !98
  %94 = load i32, ptr %7, align 4, !tbaa !40
  %95 = load ptr, ptr %11, align 8, !tbaa !98
  %96 = zext i32 %94 to i64
  %97 = getelementptr inbounds nuw [64 x i16], ptr %95, i64 %96
  store ptr %97, ptr %11, align 8, !tbaa !98
  br label %98

98:                                               ; preds = %87
  %99 = load i32, ptr %14, align 4, !tbaa !40
  %100 = add i32 %99, -1
  store i32 %100, ptr %14, align 4, !tbaa !40
  br label %84, !llvm.loop !104

101:                                              ; preds = %84
  br label %56, !llvm.loop !105

102:                                              ; preds = %56
  %103 = load ptr, ptr %10, align 8, !tbaa !96
  call void @llvm.lifetime.end.p0(i64 8, ptr %15) #8
  call void @llvm.lifetime.end.p0(i64 4, ptr %14) #8
  call void @llvm.lifetime.end.p0(i64 4, ptr %13) #8
  call void @llvm.lifetime.end.p0(i64 4, ptr %12) #8
  call void @llvm.lifetime.end.p0(i64 8, ptr %11) #8
  call void @llvm.lifetime.end.p0(i64 8, ptr %10) #8
  call void @llvm.lifetime.end.p0(i64 8, ptr %9) #8
  ret ptr %103
}