; Function Attrs: nounwind uwtable
define internal nonnull ptr @alloc_barray(ptr noundef %0, i32 noundef %1, i32 noundef %2, i32 noundef %3) #0 {
  %5 = getelementptr inbounds nuw i8, ptr %0, i64 8
  %6 = load ptr, ptr %5, align 8, !tbaa !3
  %7 = zext i32 %2 to i64
  %8 = shl nuw nsw i64 %7, 7
  %9 = udiv i64 999999976, %8
  %10 = icmp ugt i32 %2, 7812499
  br i1 %10, label %11, label %15

11:                                               ; preds = %4
  %12 = load ptr, ptr %0, align 8, !tbaa !14
  %13 = getelementptr inbounds nuw i8, ptr %12, i64 40
  store i32 70, ptr %13, align 8, !tbaa !15
  %14 = load ptr, ptr %12, align 8, !tbaa !19
  tail call void %14(ptr noundef nonnull %0) #9
  br label %15

15:                                               ; preds = %11, %4
  %16 = zext i32 %3 to i64
  %.03741 = tail call i64 @llvm.umin.i64(i64 %9, i64 %16)
  %.037 = trunc nuw nsw i64 %.03741 to i32
  %17 = getelementptr inbounds nuw i8, ptr %6, i64 160
  store i32 %.037, ptr %17, align 8, !tbaa !54
  %18 = shl nuw nsw i64 %16, 3
  %19 = tail call ptr @alloc_small(ptr noundef nonnull %0, i32 noundef %1, i64 noundef %18)
  %.not49 = icmp eq i32 %3, 0
  br i1 %.not49, label %._crit_edge, label %.lr.ph48

.loopexit:                                        ; preds = %.lr.ph, %.lr.ph48
  %.1.lcssa = phi i32 [ %.03647, %.lr.ph48 ], [ %26, %.lr.ph ]
  %20 = icmp ult i32 %.1.lcssa, %3
  br i1 %20, label %.lr.ph48, label %._crit_edge, !llvm.loop !65

.lr.ph48:                                         ; preds = %15, %.loopexit
  %.03647 = phi i32 [ %.1.lcssa, %.loopexit ], [ 0, %15 ]
  %.13846 = phi i32 [ %22, %.loopexit ], [ %.037, %15 ]
  %21 = sub nuw i32 %3, %.03647
  %22 = tail call i32 @llvm.umin.i32(i32 %.13846, i32 %21)
  %23 = zext nneg i32 %22 to i64
  %24 = mul i64 %8, %23
  %25 = tail call ptr @alloc_large(ptr noundef nonnull %0, i32 noundef %1, i64 noundef %24)
  %.not42 = icmp eq i32 %22, 0
  br i1 %.not42, label %.loopexit, label %.lr.ph

.lr.ph:                                           ; preds = %.lr.ph48, %.lr.ph
  %.045 = phi ptr [ %29, %.lr.ph ], [ %25, %.lr.ph48 ]
  %.03544 = phi i32 [ %30, %.lr.ph ], [ %22, %.lr.ph48 ]
  %.143 = phi i32 [ %26, %.lr.ph ], [ %.03647, %.lr.ph48 ]
  %26 = add i32 %.143, 1
  %27 = zext i32 %.143 to i64
  %28 = getelementptr inbounds nuw ptr, ptr %19, i64 %27
  store ptr %.045, ptr %28, align 8, !tbaa !60
  %29 = getelementptr inbounds nuw [64 x i16], ptr %.045, i64 %7
  %30 = add i32 %.03544, -1
  %.not = icmp eq i32 %30, 0
  br i1 %.not, label %.loopexit, label %.lr.ph, !llvm.loop !66

._crit_edge:                                      ; preds = %.loopexit, %15
  ret ptr %19
}